target datalayout = "e-m:e-p270:32:32-p271:32:32-p272:64:64-i64:64-i128:128-f80:128-n8:16:32:64-S128"
target triple = "x86_64-pc-linux-gnu"

%struct.TclStubs = type { i32, ptr, ptr, ptr, ptr, ptr, ptr, ptr, ptr, ptr, ptr, ptr, ptr, ptr, ptr, ptr, ptr, ptr, ptr, ptr, ptr, ptr, ptr, ptr, ptr, ptr, ptr, ptr, ptr, ptr, ptr, ptr, ptr, ptr, ptr, ptr, ptr, ptr, ptr, ptr, ptr, ptr, ptr, ptr, ptr, ptr, ptr, ptr, ptr, ptr, ptr, ptr, ptr, ptr, ptr, ptr, ptr, ptr, ptr, ptr, ptr, ptr, ptr, ptr, ptr, ptr, ptr, ptr, ptr, ptr, ptr, ptr, ptr, ptr, ptr, ptr, ptr, ptr, ptr, ptr, ptr, ptr, ptr, ptr, ptr, ptr, ptr, ptr, ptr, ptr, ptr, ptr, ptr, ptr, ptr, ptr, ptr, ptr, ptr, ptr, ptr, ptr, ptr, ptr, ptr, ptr, ptr, ptr, ptr, ptr, ptr, ptr, ptr, ptr, ptr, ptr, ptr, ptr, ptr, ptr, ptr, ptr, ptr, ptr, ptr, ptr, ptr, ptr, ptr, ptr, ptr, ptr, ptr, ptr, ptr, ptr, ptr, ptr, ptr, ptr, ptr, ptr, ptr, ptr, ptr, ptr, ptr, ptr, ptr, ptr, ptr, ptr, ptr, ptr, ptr, ptr, ptr, ptr, ptr, ptr, ptr, ptr, ptr, ptr, ptr, ptr, ptr, ptr, ptr, ptr, ptr, ptr, ptr, ptr, ptr, ptr, ptr, ptr, ptr, ptr, ptr, ptr, ptr, ptr, ptr, ptr, ptr, ptr, ptr, ptr, ptr, ptr, ptr, ptr, ptr, ptr, ptr, ptr, ptr, ptr, ptr, ptr, ptr, ptr, ptr, ptr, ptr, ptr, ptr, ptr, ptr, ptr, ptr, ptr, ptr, ptr, ptr, ptr, ptr, ptr, ptr, ptr, ptr, ptr, ptr, ptr, ptr, ptr, ptr, ptr, ptr, ptr, ptr, ptr, ptr, ptr, ptr, ptr, ptr, ptr, ptr, ptr, ptr, ptr, ptr, ptr, ptr, ptr, ptr, ptr, ptr, ptr, ptr, ptr, ptr, ptr, ptr, ptr, ptr, ptr, ptr, ptr, ptr, ptr, ptr, ptr, ptr, ptr, ptr, ptr, ptr, ptr, ptr, ptr, ptr, ptr, ptr, ptr, ptr, ptr, ptr, ptr, ptr, ptr, ptr, ptr, ptr, ptr, ptr, ptr, ptr, ptr, ptr, ptr, ptr, ptr, ptr, ptr, ptr, ptr, ptr, ptr, ptr, ptr, ptr, ptr, ptr, ptr, ptr, ptr, ptr, ptr, ptr, ptr, ptr, ptr, ptr, ptr, ptr, ptr, ptr, ptr, ptr, ptr, ptr, ptr, ptr, ptr, ptr, ptr, ptr, ptr, ptr, ptr, ptr, ptr, ptr, ptr, ptr, ptr, ptr, ptr, ptr, ptr, ptr, ptr, ptr, ptr, ptr, ptr, ptr, ptr, ptr, ptr, ptr, ptr, ptr, ptr, ptr, ptr, ptr, ptr, ptr, ptr, ptr, ptr, ptr, ptr, ptr, ptr, ptr, ptr, ptr, ptr, ptr, ptr, ptr, ptr, ptr, ptr, ptr, ptr, ptr, ptr, ptr, ptr, ptr, ptr, ptr, ptr, ptr, ptr, ptr, ptr, ptr, ptr, ptr, ptr, ptr, ptr, ptr, ptr, ptr, ptr, ptr, ptr, ptr, ptr, ptr, ptr, ptr, ptr, ptr, ptr, ptr, ptr, ptr, ptr, ptr, ptr, ptr, ptr, ptr, ptr, ptr, ptr, ptr, ptr, ptr, ptr, ptr, ptr, ptr, ptr, ptr, ptr, ptr, ptr, ptr, ptr, ptr, ptr, ptr, ptr, ptr, ptr, ptr, ptr, ptr, ptr, ptr, ptr, ptr, ptr, ptr, ptr, ptr, ptr, ptr, ptr, ptr, ptr, ptr, ptr, ptr, ptr, ptr, ptr, ptr, ptr, ptr, ptr, ptr, ptr, ptr, ptr, ptr, ptr, ptr, ptr, ptr, ptr, ptr, ptr, ptr, ptr, ptr, ptr, ptr, ptr, ptr, ptr, ptr, ptr, ptr, ptr, ptr, ptr, ptr, ptr, ptr, ptr, ptr, ptr, ptr, ptr, ptr, ptr, ptr, ptr, ptr, ptr, ptr, ptr, ptr, ptr, ptr, ptr, ptr, ptr, ptr, ptr, ptr, ptr, ptr, ptr, ptr, ptr, ptr, ptr, ptr, ptr, ptr, ptr, ptr, ptr, ptr, ptr, ptr, ptr, ptr, ptr, ptr, ptr, ptr, ptr, ptr, ptr, ptr, ptr, ptr, ptr, ptr, ptr, ptr, ptr, ptr, ptr, ptr, ptr, ptr, ptr, ptr, ptr, ptr, ptr, ptr, ptr, ptr, ptr, ptr, ptr, ptr, ptr, ptr, ptr, ptr, ptr, ptr, ptr, ptr, ptr, ptr, ptr, ptr, ptr, ptr, ptr, ptr, ptr, ptr, ptr, ptr, ptr, ptr, ptr, ptr, ptr, ptr, ptr, ptr, ptr, ptr, ptr, ptr, ptr, ptr, ptr, ptr, ptr, ptr, ptr, ptr, ptr, ptr, ptr, ptr, ptr, ptr, ptr, ptr, ptr, ptr, ptr, ptr, ptr, ptr, ptr, ptr, ptr, ptr, ptr, ptr, ptr, ptr, ptr, ptr, ptr, ptr, ptr, ptr, ptr, ptr, ptr, ptr, ptr, ptr, ptr, ptr, ptr, ptr, ptr, ptr, ptr, ptr, ptr, ptr, ptr, ptr, ptr, ptr, ptr, ptr }
%struct.SqliteDb = type { ptr, ptr, ptr, ptr, ptr, ptr, ptr, ptr, ptr, ptr, i32, ptr, ptr, ptr, ptr, ptr, ptr, ptr, ptr, i32, ptr, ptr, ptr, i32, i32, ptr, i32, i32, i32, i32, i32, i32, i32 }
%struct.Tcl_Obj = type { i32, ptr, i32, ptr, %union.anon }
%union.anon = type { %struct.anon }
%struct.anon = type { ptr, ptr }
%struct.SqlPreparedStmt = type { ptr, ptr, ptr, i32, ptr, i32, ptr }

@tclStubsPtr = external global ptr, align 8

; Function Attrs: nounwind uwtable
define internal void @dbFreeStmt(ptr noundef %0) #0 {
  %2 = alloca ptr, align 8
  store ptr %0, ptr %2, align 8, !tbaa !144
  %3 = load ptr, ptr %2, align 8, !tbaa !144
  %4 = getelementptr inbounds nuw %struct.SqlPreparedStmt, ptr %3, i32 0, i32 2
  %5 = load ptr, ptr %4, align 8, !tbaa !160
  %6 = call i32 @sqlite3_finalize(ptr noundef %5)
  %7 = load ptr, ptr @tclStubsPtr, align 8, !tbaa !10
  %8 = getelementptr inbounds nuw %struct.TclStubs, ptr %7, i32 0, i32 6
  %9 = load ptr, ptr %8, align 8, !tbaa !42
  %10 = load ptr, ptr %2, align 8, !tbaa !144
  call void %9(ptr noundef %10)
  ret void
}

; Function Attrs: nounwind uwtable
define internal void @dbReleaseStmt(ptr noundef %0, ptr noundef %1, i32 noundef %2) #0 {
  %4 = alloca ptr, align 8
  %5 = alloca ptr, align 8
  %6 = alloca i32, align 4
  %7 = alloca i32, align 4
  %8 = alloca ptr, align 8
  %9 = alloca ptr, align 8
  store ptr %0, ptr %4, align 8, !tbaa !30
  store ptr %1, ptr %5, align 8, !tbaa !144
  store i32 %2, ptr %6, align 4, !tbaa !8
  call void @llvm.lifetime.start.p0(i64 4, ptr %7) #10
  store i32 0, ptr %7, align 4, !tbaa !8
  br label %10

10:                                               ; preds = %38, %3
  %11 = load i32, ptr %7, align 4, !tbaa !8
  %12 = load ptr, ptr %5, align 8, !tbaa !144
  %13 = getelementptr inbounds nuw %struct.SqlPreparedStmt, ptr %12, i32 0, i32 5
  %14 = load i32, ptr %13, align 8, !tbaa !226
  %15 = icmp slt i32 %11, %14
  br i1 %15, label %16, label %41

16:                                               ; preds = %10
  br label %17

17:                                               ; preds = %16
  call void @llvm.lifetime.start.p0(i64 8, ptr %8) #10
  %18 = load ptr, ptr %5, align 8, !tbaa !144
  %19 = getelementptr inbounds nuw %struct.SqlPreparedStmt, ptr %18, i32 0, i32 6
  %20 = load ptr, ptr %19, align 8, !tbaa !223
  %21 = load i32, ptr %7, align 4, !tbaa !8
  %22 = sext i32 %21 to i64
  %23 = getelementptr inbounds ptr, ptr %20, i64 %22
  %24 = load ptr, ptr %23, align 8, !tbaa !21
  store ptr %24, ptr %8, align 8, !tbaa !21
  %25 = load ptr, ptr %8, align 8, !tbaa !21
  %26 = getelementptr inbounds nuw %struct.Tcl_Obj, ptr %25, i32 0, i32 0
  %27 = load i32, ptr %26, align 8, !tbaa !70
  %28 = add nsw i32 %27, -1
  store i32 %28, ptr %26, align 8, !tbaa !70
  %29 = icmp sle i32 %27, 1
  br i1 %29, label %30, label %35

30:                                               ; preds = %17
  %31 = load ptr, ptr @tclStubsPtr, align 8, !tbaa !10
  %32 = getelementptr inbounds nuw %struct.TclStubs, ptr %31, i32 0, i32 32
  %33 = load ptr, ptr %32, align 8, !tbaa !73
  %34 = load ptr, ptr %8, align 8, !tbaa !21
  call void %33(ptr noundef %34)
  br label %35

35:                                               ; preds = %30, %17
  call void @llvm.lifetime.end.p0(i64 8, ptr %8) #10
  br label %36

36:                                               ; preds = %35
  br label %37

37:                                               ; preds = %36
  br label %38

38:                                               ; preds = %37
  %39 = load i32, ptr %7, align 4, !tbaa !8
  %40 = add nsw i32 %39, 1
  store i32 %40, ptr %7, align 4, !tbaa !8
  br label %10, !llvm.loop !228

41:                                               ; preds = %10
  %42 = load ptr, ptr %5, align 8, !tbaa !144
  %43 = getelementptr inbounds nuw %struct.SqlPreparedStmt, ptr %42, i32 0, i32 5
  store i32 0, ptr %43, align 8, !tbaa !226
  %44 = load ptr, ptr %4, align 8, !tbaa !30
  %45 = getelementptr inbounds nuw %struct.SqliteDb, ptr %44, i32 0, i32 23
  %46 = load i32, ptr %45, align 8, !tbaa !43
  %47 = icmp sle i32 %46, 0
  br i1 %47, label %51, label %48

48:                                               ; preds = %41
  %49 = load i32, ptr %6, align 4, !tbaa !8
  %50 = icmp ne i32 %49, 0
  br i1 %50, label %51, label %53

51:                                               ; preds = %48, %41
  %52 = load ptr, ptr %5, align 8, !tbaa !144
  call void @dbFreeStmt(ptr noundef %52)
  br label %116

53:                                               ; preds = %48
  %54 = load ptr, ptr %4, align 8, !tbaa !30
  %55 = getelementptr inbounds nuw %struct.SqliteDb, ptr %54, i32 0, i32 21
  %56 = load ptr, ptr %55, align 8, !tbaa !143
  %57 = load ptr, ptr %5, align 8, !tbaa !144
  %58 = getelementptr inbounds nuw %struct.SqlPreparedStmt, ptr %57, i32 0, i32 0
  store ptr %56, ptr %58, align 8, !tbaa !145
  %59 = load ptr, ptr %5, align 8, !tbaa !144
  %60 = getelementptr inbounds nuw %struct.SqlPreparedStmt, ptr %59, i32 0, i32 1
  store ptr null, ptr %60, align 8, !tbaa !221
  %61 = load ptr, ptr %4, align 8, !tbaa !30
  %62 = getelementptr inbounds nuw %struct.SqliteDb, ptr %61, i32 0, i32 21
  %63 = load ptr, ptr %62, align 8, !tbaa !143
  %64 = icmp ne ptr %63, null
  br i1 %64, label %65, label %71

65:                                               ; preds = %53
  %66 = load ptr, ptr %5, align 8, !tbaa !144
  %67 = load ptr, ptr %4, align 8, !tbaa !30
  %68 = getelementptr inbounds nuw %struct.SqliteDb, ptr %67, i32 0, i32 21
  %69 = load ptr, ptr %68, align 8, !tbaa !143
  %70 = getelementptr inbounds nuw %struct.SqlPreparedStmt, ptr %69, i32 0, i32 1
  store ptr %66, ptr %70, align 8, !tbaa !221
  br label %71

71:                                               ; preds = %65, %53
  %72 = load ptr, ptr %5, align 8, !tbaa !144
  %73 = load ptr, ptr %4, align 8, !tbaa !30
  %74 = getelementptr inbounds nuw %struct.SqliteDb, ptr %73, i32 0, i32 21
  store ptr %72, ptr %74, align 8, !tbaa !143
  %75 = load ptr, ptr %4, align 8, !tbaa !30
  %76 = getelementptr inbounds nuw %struct.SqliteDb, ptr %75, i32 0, i32 22
  %77 = load ptr, ptr %76, align 8, !tbaa !149
  %78 = icmp eq ptr %77, null
  br i1 %78, label %79, label %83

79:                                               ; preds = %71
  %80 = load ptr, ptr %5, align 8, !tbaa !144
  %81 = load ptr, ptr %4, align 8, !tbaa !30
  %82 = getelementptr inbounds nuw %struct.SqliteDb, ptr %81, i32 0, i32 22
  store ptr %80, ptr %82, align 8, !tbaa !149
  br label %84

83:                                               ; preds = %71
  br label %84

84:                                               ; preds = %83, %79
  %85 = load ptr, ptr %4, align 8, !tbaa !30
  %86 = getelementptr inbounds nuw %struct.SqliteDb, ptr %85, i32 0, i32 24
  %87 = load i32, ptr %86, align 4, !tbaa !148
  %88 = add nsw i32 %87, 1
  store i32 %88, ptr %86, align 4, !tbaa !148
  br label %89

89:                                               ; preds = %97, %84
  %90 = load ptr, ptr %4, align 8, !tbaa !30
  %91 = getelementptr inbounds nuw %struct.SqliteDb, ptr %90, i32 0, i32 24
  %92 = load i32, ptr %91, align 4, !tbaa !148
  %93 = load ptr, ptr %4, align 8, !tbaa !30
  %94 = getelementptr inbounds nuw %struct.SqliteDb, ptr %93, i32 0, i32 23
  %95 = load i32, ptr %94, align 8, !tbaa !43
  %96 = icmp sgt i32 %92, %95
  br i1 %96, label %97, label %115

97:                                               ; preds = %89
  call void @llvm.lifetime.start.p0(i64 8, ptr %9) #10
  %98 = load ptr, ptr %4, align 8, !tbaa !30
  %99 = getelementptr inbounds nuw %struct.SqliteDb, ptr %98, i32 0, i32 22
  %100 = load ptr, ptr %99, align 8, !tbaa !149
  store ptr %100, ptr %9, align 8, !tbaa !144
  %101 = load ptr, ptr %9, align 8, !tbaa !144
  %102 = getelementptr inbounds nuw %struct.SqlPreparedStmt, ptr %101, i32 0, i32 1
  %103 = load ptr, ptr %102, align 8, !tbaa !221
  %104 = load ptr, ptr %4, align 8, !tbaa !30
  %105 = getelementptr inbounds nuw %struct.SqliteDb, ptr %104, i32 0, i32 22
  store ptr %103, ptr %105, align 8, !tbaa !149
  %106 = load ptr, ptr %4, align 8, !tbaa !30
  %107 = getelementptr inbounds nuw %struct.SqliteDb, ptr %106, i32 0, i32 22
  %108 = load ptr, ptr %107, align 8, !tbaa !149
  %109 = getelementptr inbounds nuw %struct.SqlPreparedStmt, ptr %108, i32 0, i32 0
  store ptr null, ptr %109, align 8, !tbaa !145
  %110 = load ptr, ptr %4, align 8, !tbaa !30
  %111 = getelementptr inbounds nuw %struct.SqliteDb, ptr %110, i32 0, i32 24
  %112 = load i32, ptr %111, align 4, !tbaa !148
  %113 = add nsw i32 %112, -1
  store i32 %113, ptr %111, align 4, !tbaa !148
  %114 = load ptr, ptr %9, align 8, !tbaa !144
  call void @dbFreeStmt(ptr noundef %114)
  call void @llvm.lifetime.end.p0(i64 8, ptr %9) #10
  br label %89, !llvm.loop !229

115:                                              ; preds = %89
  br label %116

116:                                              ; preds = %115, %51
  call void @llvm.lifetime.end.p0(i64 4, ptr %7) #10
  ret void
}