; Function Attrs: nounwind uwtable
define internal fastcc void @dbReleaseStmt(ptr noundef captures(none) %0, ptr noundef %1, i32 noundef range(i32 0, 2) %2) unnamed_addr #0 {
  %4 = getelementptr inbounds nuw i8, ptr %1, i64 40
  %5 = load i32, ptr %4, align 8, !tbaa !148
  %6 = icmp sgt i32 %5, 0
  br i1 %6, label %.lr.ph, label %._crit_edge

.lr.ph:                                           ; preds = %3
  %7 = getelementptr inbounds nuw i8, ptr %1, i64 48
  br label %8

8:                                                ; preds = %.lr.ph, %20
  %9 = phi i32 [ %5, %.lr.ph ], [ %21, %20 ]
  %indvars.iv = phi i64 [ 0, %.lr.ph ], [ %indvars.iv.next, %20 ]
  %10 = load ptr, ptr %7, align 8, !tbaa !147
  %11 = getelementptr inbounds nuw ptr, ptr %10, i64 %indvars.iv
  %12 = load ptr, ptr %11, align 8, !tbaa !15
  %13 = load i32, ptr %12, align 8, !tbaa !61
  %14 = add nsw i32 %13, -1
  store i32 %14, ptr %12, align 8, !tbaa !61
  %15 = icmp slt i32 %13, 2
  br i1 %15, label %16, label %20

16:                                               ; preds = %8
  %17 = load ptr, ptr @tclStubsPtr, align 8, !tbaa !3
  %18 = getelementptr inbounds nuw i8, ptr %17, i64 256
  %19 = load ptr, ptr %18, align 8, !tbaa !64
  tail call void %19(ptr noundef nonnull %12) #14
  %.pre = load i32, ptr %4, align 8, !tbaa !148
  br label %20

20:                                               ; preds = %16, %8
  %21 = phi i32 [ %.pre, %16 ], [ %9, %8 ]
  %indvars.iv.next = add nuw nsw i64 %indvars.iv, 1
  %22 = sext i32 %21 to i64
  %23 = icmp slt i64 %indvars.iv.next, %22
  br i1 %23, label %8, label %._crit_edge, !llvm.loop !166

._crit_edge:                                      ; preds = %20, %3
  store i32 0, ptr %4, align 8, !tbaa !148
  %24 = getelementptr inbounds nuw i8, ptr %0, i64 184
  %25 = load i32, ptr %24, align 8, !tbaa !37
  %26 = icmp slt i32 %25, 1
  %27 = icmp ne i32 %2, 0
  %or.cond = or i1 %27, %26
  br i1 %or.cond, label %28, label %35

28:                                               ; preds = %._crit_edge
  %29 = getelementptr inbounds nuw i8, ptr %1, i64 16
  %30 = load ptr, ptr %29, align 8, !tbaa !133
  %31 = tail call i32 @sqlite3_finalize(ptr noundef %30) #14
  %32 = load ptr, ptr @tclStubsPtr, align 8, !tbaa !3
  %33 = getelementptr inbounds nuw i8, ptr %32, i64 48
  %34 = load ptr, ptr %33, align 8, !tbaa !36
  tail call void %34(ptr noundef nonnull %1) #14
  br label %.loopexit

35:                                               ; preds = %._crit_edge
  %36 = getelementptr inbounds nuw i8, ptr %0, i64 168
  %37 = load ptr, ptr %36, align 8, !tbaa !130
  store ptr %37, ptr %1, align 8, !tbaa !131
  %38 = getelementptr inbounds nuw i8, ptr %1, i64 8
  store ptr null, ptr %38, align 8, !tbaa !144
  %.not = icmp eq ptr %37, null
  br i1 %.not, label %41, label %39

39:                                               ; preds = %35
  %40 = getelementptr inbounds nuw i8, ptr %37, i64 8
  store ptr %1, ptr %40, align 8, !tbaa !144
  br label %41

41:                                               ; preds = %39, %35
  store ptr %1, ptr %36, align 8, !tbaa !130
  %42 = getelementptr inbounds nuw i8, ptr %0, i64 176
  %43 = load ptr, ptr %42, align 8, !tbaa !145
  %44 = icmp eq ptr %43, null
  br i1 %44, label %45, label %46

45:                                               ; preds = %41
  store ptr %1, ptr %42, align 8, !tbaa !145
  br label %46

46:                                               ; preds = %41, %45
  %47 = getelementptr inbounds nuw i8, ptr %0, i64 188
  %48 = load i32, ptr %47, align 4, !tbaa !135
  %49 = add nsw i32 %48, 1
  store i32 %49, ptr %47, align 4, !tbaa !135
  %.not35 = icmp slt i32 %48, %25
  br i1 %.not35, label %.loopexit, label %.lr.ph34

.lr.ph34:                                         ; preds = %46, %.lr.ph34
  %50 = phi i32 [ %61, %.lr.ph34 ], [ %49, %46 ]
  %51 = load ptr, ptr %42, align 8, !tbaa !145
  %52 = getelementptr inbounds nuw i8, ptr %51, i64 8
  %53 = load ptr, ptr %52, align 8, !tbaa !144
  store ptr %53, ptr %42, align 8, !tbaa !145
  store ptr null, ptr %53, align 8, !tbaa !131
  %54 = add nsw i32 %50, -1
  store i32 %54, ptr %47, align 4, !tbaa !135
  %55 = getelementptr inbounds nuw i8, ptr %51, i64 16
  %56 = load ptr, ptr %55, align 8, !tbaa !133
  %57 = tail call i32 @sqlite3_finalize(ptr noundef %56) #14
  %58 = load ptr, ptr @tclStubsPtr, align 8, !tbaa !3
  %59 = getelementptr inbounds nuw i8, ptr %58, i64 48
  %60 = load ptr, ptr %59, align 8, !tbaa !36
  tail call void %60(ptr noundef %51) #14
  %61 = load i32, ptr %47, align 4, !tbaa !135
  %62 = load i32, ptr %24, align 8, !tbaa !37
  %63 = icmp sgt i32 %61, %62
  br i1 %63, label %.lr.ph34, label %.loopexit, !llvm.loop !204

.loopexit:                                        ; preds = %.lr.ph34, %46, %28
  ret void
}